target datalayout = "e-m:e-p270:32:32-p271:32:32-p272:64:64-i64:64-i128:128-f80:128-n8:16:32:64-S128"
target triple = "x86_64-pc-linux-gnu"

%struct.redisServer = type { i32, i64, ptr, ptr, ptr, i32, i32, i32, i32, i32, ptr, ptr, ptr, ptr, ptr, i32, i32, i32, i32, i64, i32, i32, i32, i32, ptr, i32, i32, [41 x i8], i32, i64, i32, i32, i32, ptr, ptr, i32, i32, i64, ptr, ptr, ptr, ptr, [2 x i32], i32, i32, i32, i32, i32, i32, [16 x ptr], i32, ptr, ptr, i32, [8 x %struct.connListener], i32, %struct.connListener, ptr, ptr, ptr, ptr, ptr, ptr, ptr, ptr, ptr, ptr, i32, ptr, i32, ptr, [3 x %struct.pause_event], [256 x i8], ptr, i64, i32, i32, [128 x i32], i32, i32, i64, i32, i32, i32, i32, i32, i64, i64, i64, i64, i64, i64, i64, i64, i64, i64, double, i64, i64, i64, i64, i64, i64, i64, i64, i64, i64, i64, i64, i64, i64, i64, i64, i64, i64, i64, i64, i64, double, i64, i64, i64, i64, i64, ptr, i64, i64, i64, %struct.malloc_stats, i64, i64, i64, i64, i64, i64, i64, i64, i64, i64, i64, i64, double, [4 x i64], i64, i64, i64, i64, [128 x i64], [128 x i64], i64, i64, [7 x %struct.anon], i64, i64, i64, i64, i64, i64, [4 x %struct.durationStats], i32, i32, i32, i32, i32, i32, i32, i32, i32, i32, i32, i32, i64, i32, i32, i32, i32, i64, i64, i32, i32, i32, i32, i32, ptr, [3 x %struct.clientBufferLimitsConfig], i32, i32, i32, ptr, i32, i32, i32, i32, i32, i32, ptr, ptr, i32, i32, i64, i64, i64, i64, i64, i32, i32, ptr, i32, i32, i64, i64, i64, i64, i64, i32, i32, i64, i32, i32, i32, i32, i32, i32, i32, i32, ptr, i32, i64, i64, i64, i64, i32, ptr, i32, ptr, i32, i32, i32, i64, i64, i64, i64, i32, i32, i32, i32, i32, i32, ptr, i32, i32, ptr, i32, i32, i32, [2 x i32], i32, %struct.redisOpArray, i32, ptr, i32, ptr, i32, i32, i32, i32, i32, i32, i32, [41 x i8], [41 x i8], i64, i64, i64, i64, i32, i32, ptr, i64, i64, %struct.replDataBuf, i64, i64, i32, i32, i32, i32, i32, i32, i32, i32, i32, i64, ptr, i64, ptr, ptr, ptr, i32, i32, ptr, ptr, i32, i32, i32, i64, i64, i64, i64, ptr, ptr, i32, ptr, i64, i32, i32, i32, i64, i32, i32, i32, i32, ptr, i32, i32, [41 x i8], i64, i32, ptr, i32, i32, i64, i64, i32, i32, i32, i32, i32, i64, [3 x i32], i32, i32, i32, [10 x i32], ptr, ptr, i32, i64, ptr, ptr, i32, i32, i32, i32, i64, i64, i64, i64, i64, i64, i64, i64, i64, i64, i32, i32, i64, i64, i32, i64, i64, i64, i64, i64, ptr, ptr, i32, ptr, i32, i32, i32, i32, i64, i64, ptr, ptr, i32, i32, i32, i32, i32, ptr, ptr, ptr, i32, i32, i32, i32, i32, i32, i32, i64, i32, i32, i64, i32, i32, i32, i32, i32, i32, i32, i64, ptr, ptr, i64, ptr, i32, %struct.aclInfo, i32, i64, i32, i32, i32, %struct.redisTLSContextConfig, ptr, ptr, ptr, ptr, ptr, i64, i32, ptr, i32, i32, i32, i64, i32, ptr }
%struct.connListener = type { [16 x i32], i32, ptr, i32, i32, ptr, ptr }
%struct.pause_event = type { i32, i64 }
%struct.malloc_stats = type { i64, i64, i64, i64, i64, i64, i64, i64, i64, i64, i64 }
%struct.anon = type { i64, i64, [16 x i64], i32 }
%struct.durationStats = type { i64, i64, i64 }
%struct.clientBufferLimitsConfig = type { i64, i64, i64 }
%struct.redisOpArray = type { ptr, i32, i32 }
%struct.replDataBuf = type { ptr, i64, i64, i64, i64 }
%struct.aclInfo = type { i64, i64, i64, i64 }
%struct.redisTLSContextConfig = type { ptr, ptr, ptr, ptr, ptr, ptr, ptr, ptr, ptr, ptr, ptr, ptr, i32, i32, i32, i32 }
%struct.client = type { i64, i64, ptr, i8, i8, i8, i8, i32, ptr, ptr, ptr, ptr, ptr, i64, i64, i32, ptr, i32, i32, ptr, i64, ptr, ptr, ptr, ptr, ptr, i32, i32, i64, ptr, i64, ptr, i64, i64, i64, i32, ptr, i64, i64, i32, i32, i32, i32, i64, i64, ptr, i64, i64, i64, i64, i64, i64, i64, i64, [41 x i8], i32, ptr, i32, i32, i64, %struct.multiState, %struct.blockingState, i64, ptr, ptr, ptr, ptr, ptr, ptr, ptr, ptr, ptr, ptr, ptr, ptr, ptr, ptr, i64, ptr, i64, i32, ptr, ptr, ptr, i64, %struct.listNode, i64, i64, i32, i64, ptr }
%struct.multiState = type { ptr, i32, i32, i32, i64, i32 }
%struct.blockingState = type { i32, i64, i32, ptr, i32, i32, i64, ptr, ptr, i64 }
%struct.listNode = type { ptr, ptr, ptr }
%struct.listIter = type { ptr, i32 }
%struct.list = type { ptr, ptr, ptr, ptr, ptr, i64 }
%struct.watchedKey = type { %struct.listNode, ptr, ptr, ptr, i8 }
%struct.redisDb = type { ptr, ptr, ptr, ptr, ptr, ptr, ptr, i32, i64, i64, ptr }

@server = external global %struct.redisServer, align 8

; Function Attrs: inlinehint nounwind uwtable
define internal void @watchedKeyLinkToClients(ptr noundef %0, ptr noundef %1) #7 {
  %3 = alloca ptr, align 8
  %4 = alloca ptr, align 8
  store ptr %0, ptr %3, align 8, !tbaa !60
  store ptr %1, ptr %4, align 8, !tbaa !58
  %5 = load ptr, ptr %3, align 8, !tbaa !60
  %6 = load ptr, ptr %4, align 8, !tbaa !58
  %7 = getelementptr inbounds nuw %struct.watchedKey, ptr %6, i32 0, i32 0
  %8 = getelementptr inbounds nuw %struct.listNode, ptr %7, i32 0, i32 2
  store ptr %5, ptr %8, align 8, !tbaa !105
  %9 = load ptr, ptr %3, align 8, !tbaa !60
  %10 = load ptr, ptr %4, align 8, !tbaa !58
  %11 = getelementptr inbounds nuw %struct.watchedKey, ptr %10, i32 0, i32 0
  call void @listLinkNodeTail(ptr noundef %9, ptr noundef %11)
  ret void
}

; Function Attrs: nounwind uwtable
define dso_local void @watchForKey(ptr noundef %0, ptr noundef %1) #0 {
  %3 = alloca ptr, align 8
  %4 = alloca ptr, align 8
  %5 = alloca ptr, align 8
  %6 = alloca %struct.listIter, align 8
  %7 = alloca ptr, align 8
  %8 = alloca ptr, align 8
  %9 = alloca i32, align 4
  store ptr %0, ptr %3, align 8, !tbaa !5
  store ptr %1, ptr %4, align 8, !tbaa !40
  call void @llvm.lifetime.start.p0(i64 8, ptr %5) #8
  store ptr null, ptr %5, align 8, !tbaa !60
  call void @llvm.lifetime.start.p0(i64 16, ptr %6) #8
  call void @llvm.lifetime.start.p0(i64 8, ptr %7) #8
  call void @llvm.lifetime.start.p0(i64 8, ptr %8) #8
  %10 = load ptr, ptr %3, align 8, !tbaa !5
  %11 = getelementptr inbounds nuw %struct.client, ptr %10, i32 0, i32 63
  %12 = load ptr, ptr %11, align 8, !tbaa !53
  %13 = getelementptr inbounds nuw %struct.list, ptr %12, i32 0, i32 5
  %14 = load i64, ptr %13, align 8, !tbaa !54
  %15 = icmp eq i64 %14, 0
  br i1 %15, label %16, label %19

16:                                               ; preds = %2
  %17 = load i32, ptr getelementptr inbounds nuw (%struct.redisServer, ptr @server, i32 0, i32 379), align 4, !tbaa !68
  %18 = add i32 %17, 1
  store i32 %18, ptr getelementptr inbounds nuw (%struct.redisServer, ptr @server, i32 0, i32 379), align 4, !tbaa !68
  br label %19

19:                                               ; preds = %16, %2
  %20 = load ptr, ptr %3, align 8, !tbaa !5
  %21 = getelementptr inbounds nuw %struct.client, ptr %20, i32 0, i32 63
  %22 = load ptr, ptr %21, align 8, !tbaa !53
  call void @listRewind(ptr noundef %22, ptr noundef %6)
  br label %23

23:                                               ; preds = %45, %19
  %24 = call ptr @listNext(ptr noundef %6)
  store ptr %24, ptr %7, align 8, !tbaa !56
  %25 = icmp ne ptr %24, null
  br i1 %25, label %26, label %46

26:                                               ; preds = %23
  %27 = load ptr, ptr %7, align 8, !tbaa !56
  %28 = getelementptr inbounds nuw %struct.listNode, ptr %27, i32 0, i32 2
  %29 = load ptr, ptr %28, align 8, !tbaa !57
  store ptr %29, ptr %8, align 8, !tbaa !58
  %30 = load ptr, ptr %8, align 8, !tbaa !58
  %31 = getelementptr inbounds nuw %struct.watchedKey, ptr %30, i32 0, i32 2
  %32 = load ptr, ptr %31, align 8, !tbaa !61
  %33 = load ptr, ptr %3, align 8, !tbaa !5
  %34 = getelementptr inbounds nuw %struct.client, ptr %33, i32 0, i32 8
  %35 = load ptr, ptr %34, align 8, !tbaa !92
  %36 = icmp eq ptr %32, %35
  br i1 %36, label %37, label %45

37:                                               ; preds = %26
  %38 = load ptr, ptr %4, align 8, !tbaa !40
  %39 = load ptr, ptr %8, align 8, !tbaa !58
  %40 = getelementptr inbounds nuw %struct.watchedKey, ptr %39, i32 0, i32 1
  %41 = load ptr, ptr %40, align 8, !tbaa !66
  %42 = call i32 @equalStringObjects(ptr noundef %38, ptr noundef %41)
  %43 = icmp ne i32 %42, 0
  br i1 %43, label %44, label %45

44:                                               ; preds = %37
  store i32 1, ptr %9, align 4
  br label %100

45:                                               ; preds = %37, %26
  br label %23, !llvm.loop !103

46:                                               ; preds = %23
  %47 = load ptr, ptr %3, align 8, !tbaa !5
  %48 = getelementptr inbounds nuw %struct.client, ptr %47, i32 0, i32 8
  %49 = load ptr, ptr %48, align 8, !tbaa !92
  %50 = getelementptr inbounds nuw %struct.redisDb, ptr %49, i32 0, i32 6
  %51 = load ptr, ptr %50, align 8, !tbaa !63
  %52 = load ptr, ptr %4, align 8, !tbaa !40
  %53 = call ptr @dictFetchValue(ptr noundef %51, ptr noundef %52)
  store ptr %53, ptr %5, align 8, !tbaa !60
  %54 = load ptr, ptr %5, align 8, !tbaa !60
  %55 = icmp ne ptr %54, null
  br i1 %55, label %67, label %56

56:                                               ; preds = %46
  %57 = call ptr @listCreate()
  store ptr %57, ptr %5, align 8, !tbaa !60
  %58 = load ptr, ptr %3, align 8, !tbaa !5
  %59 = getelementptr inbounds nuw %struct.client, ptr %58, i32 0, i32 8
  %60 = load ptr, ptr %59, align 8, !tbaa !92
  %61 = getelementptr inbounds nuw %struct.redisDb, ptr %60, i32 0, i32 6
  %62 = load ptr, ptr %61, align 8, !tbaa !63
  %63 = load ptr, ptr %4, align 8, !tbaa !40
  %64 = load ptr, ptr %5, align 8, !tbaa !60
  %65 = call i32 @dictAdd(ptr noundef %62, ptr noundef %63, ptr noundef %64)
  %66 = load ptr, ptr %4, align 8, !tbaa !40
  call void @incrRefCount(ptr noundef %66)
  br label %67

67:                                               ; preds = %56, %46
  %68 = call noalias ptr @zmalloc(i64 noundef 56) #9
  store ptr %68, ptr %8, align 8, !tbaa !58
  %69 = load ptr, ptr %4, align 8, !tbaa !40
  %70 = load ptr, ptr %8, align 8, !tbaa !58
  %71 = getelementptr inbounds nuw %struct.watchedKey, ptr %70, i32 0, i32 1
  store ptr %69, ptr %71, align 8, !tbaa !66
  %72 = load ptr, ptr %3, align 8, !tbaa !5
  %73 = load ptr, ptr %8, align 8, !tbaa !58
  %74 = getelementptr inbounds nuw %struct.watchedKey, ptr %73, i32 0, i32 3
  store ptr %72, ptr %74, align 8, !tbaa !104
  %75 = load ptr, ptr %3, align 8, !tbaa !5
  %76 = getelementptr inbounds nuw %struct.client, ptr %75, i32 0, i32 8
  %77 = load ptr, ptr %76, align 8, !tbaa !92
  %78 = load ptr, ptr %8, align 8, !tbaa !58
  %79 = getelementptr inbounds nuw %struct.watchedKey, ptr %78, i32 0, i32 2
  store ptr %77, ptr %79, align 8, !tbaa !61
  %80 = load ptr, ptr %3, align 8, !tbaa !5
  %81 = getelementptr inbounds nuw %struct.client, ptr %80, i32 0, i32 8
  %82 = load ptr, ptr %81, align 8, !tbaa !92
  %83 = load ptr, ptr %4, align 8, !tbaa !40
  %84 = call i32 @keyIsExpired(ptr noundef %82, ptr noundef %83)
  %85 = load ptr, ptr %8, align 8, !tbaa !58
  %86 = getelementptr inbounds nuw %struct.watchedKey, ptr %85, i32 0, i32 4
  %87 = trunc i32 %84 to i8
  %88 = load i8, ptr %86, align 8
  %89 = and i8 %87, 1
  %90 = and i8 %88, -2
  %91 = or i8 %90, %89
  store i8 %91, ptr %86, align 8
  %92 = load ptr, ptr %4, align 8, !tbaa !40
  call void @incrRefCount(ptr noundef %92)
  %93 = load ptr, ptr %3, align 8, !tbaa !5
  %94 = getelementptr inbounds nuw %struct.client, ptr %93, i32 0, i32 63
  %95 = load ptr, ptr %94, align 8, !tbaa !53
  %96 = load ptr, ptr %8, align 8, !tbaa !58
  %97 = call ptr @listAddNodeTail(ptr noundef %95, ptr noundef %96)
  %98 = load ptr, ptr %5, align 8, !tbaa !60
  %99 = load ptr, ptr %8, align 8, !tbaa !58
  call void @watchedKeyLinkToClients(ptr noundef %98, ptr noundef %99)
  store i32 0, ptr %9, align 4
  br label %100

100:                                              ; preds = %67, %44
  call void @llvm.lifetime.end.p0(i64 8, ptr %8) #8
  call void @llvm.lifetime.end.p0(i64 8, ptr %7) #8
  call void @llvm.lifetime.end.p0(i64 16, ptr %6) #8
  call void @llvm.lifetime.end.p0(i64 8, ptr %5) #8
  %101 = load i32, ptr %9, align 4
  switch i32 %101, label %103 [
    i32 0, label %102
    i32 1, label %102
  ]

102:                                              ; preds = %100, %100
  ret void

103:                                              ; preds = %100
  unreachable
}