; Function Attrs: nounwind uwtable
define dso_local void @watchForKey(ptr noundef %0, ptr noundef %1) local_unnamed_addr #1 {
  %3 = alloca %struct.listIter, align 8
  call void @llvm.lifetime.start.p0(i64 16, ptr nonnull %3) #10
  %4 = getelementptr inbounds nuw i8, ptr %0, i64 560
  %5 = load ptr, ptr %4, align 8, !tbaa !48
  %6 = getelementptr inbounds nuw i8, ptr %5, i64 40
  %7 = load i64, ptr %6, align 8, !tbaa !49
  %8 = icmp eq i64 %7, 0
  br i1 %8, label %9, label %12

9:                                                ; preds = %2
  %10 = load i32, ptr getelementptr inbounds nuw (i8, ptr @server, i64 7884), align 4, !tbaa !62
  %11 = add i32 %10, 1
  store i32 %11, ptr getelementptr inbounds nuw (i8, ptr @server, i64 7884), align 4, !tbaa !62
  br label %12

12:                                               ; preds = %9, %2
  call void @listRewind(ptr noundef nonnull %5, ptr noundef nonnull %3) #10
  %13 = call ptr @listNext(ptr noundef nonnull %3) #10
  %.not32 = icmp eq ptr %13, null
  br i1 %.not32, label %._crit_edge, label %.lr.ph

.lr.ph:                                           ; preds = %12
  %14 = getelementptr inbounds nuw i8, ptr %0, i64 32
  br label %15

15:                                               ; preds = %.lr.ph, %27
  %16 = phi ptr [ %13, %.lr.ph ], [ %28, %27 ]
  %17 = getelementptr inbounds nuw i8, ptr %16, i64 16
  %18 = load ptr, ptr %17, align 8, !tbaa !51
  %19 = getelementptr inbounds nuw i8, ptr %18, i64 32
  %20 = load ptr, ptr %19, align 8, !tbaa !56
  %21 = load ptr, ptr %14, align 8, !tbaa !85
  %22 = icmp eq ptr %20, %21
  br i1 %22, label %23, label %27

23:                                               ; preds = %15
  %24 = getelementptr inbounds nuw i8, ptr %18, i64 24
  %25 = load ptr, ptr %24, align 8, !tbaa !60
  %26 = call i32 @equalStringObjects(ptr noundef %1, ptr noundef %25) #10
  %.not31 = icmp eq i32 %26, 0
  br i1 %.not31, label %27, label %.loopexit

27:                                               ; preds = %23, %15
  %28 = call ptr @listNext(ptr noundef nonnull %3) #10
  %.not = icmp eq ptr %28, null
  br i1 %.not, label %._crit_edge, label %15, !llvm.loop !96

._crit_edge:                                      ; preds = %27, %12
  %29 = getelementptr inbounds nuw i8, ptr %0, i64 32
  %30 = load ptr, ptr %29, align 8, !tbaa !85
  %31 = getelementptr inbounds nuw i8, ptr %30, i64 48
  %32 = load ptr, ptr %31, align 8, !tbaa !57
  %33 = call ptr @dictFetchValue(ptr noundef %32, ptr noundef %1) #10
  %.not30 = icmp eq ptr %33, null
  br i1 %.not30, label %34, label %40

34:                                               ; preds = %._crit_edge
  %35 = call ptr @listCreate() #10
  %36 = load ptr, ptr %29, align 8, !tbaa !85
  %37 = getelementptr inbounds nuw i8, ptr %36, i64 48
  %38 = load ptr, ptr %37, align 8, !tbaa !57
  %39 = call i32 @dictAdd(ptr noundef %38, ptr noundef %1, ptr noundef %35) #10
  call void @incrRefCount(ptr noundef %1) #10
  br label %40

40:                                               ; preds = %34, %._crit_edge
  %.0 = phi ptr [ %33, %._crit_edge ], [ %35, %34 ]
  %41 = call noalias dereferenceable_or_null(56) ptr @zmalloc(i64 noundef 56) #11
  %42 = getelementptr inbounds nuw i8, ptr %41, i64 24
  store ptr %1, ptr %42, align 8, !tbaa !60
  %43 = getelementptr inbounds nuw i8, ptr %41, i64 40
  store ptr %0, ptr %43, align 8, !tbaa !97
  %44 = load ptr, ptr %29, align 8, !tbaa !85
  %45 = getelementptr inbounds nuw i8, ptr %41, i64 32
  store ptr %44, ptr %45, align 8, !tbaa !56
  %46 = call i32 @keyIsExpired(ptr noundef %44, ptr noundef %1) #10
  %47 = getelementptr inbounds nuw i8, ptr %41, i64 48
  %48 = trunc i32 %46 to i8
  %49 = load i8, ptr %47, align 8
  %50 = and i8 %48, 1
  %51 = and i8 %49, -2
  %52 = or disjoint i8 %51, %50
  store i8 %52, ptr %47, align 8
  call void @incrRefCount(ptr noundef %1) #10
  %53 = load ptr, ptr %4, align 8, !tbaa !48
  %54 = call ptr @listAddNodeTail(ptr noundef %53, ptr noundef %41) #10
  %55 = getelementptr inbounds nuw i8, ptr %41, i64 16
  store ptr %.0, ptr %55, align 8, !tbaa !52
  call void @listLinkNodeTail(ptr noundef %.0, ptr noundef %41) #10
  br label %.loopexit

.loopexit:                                        ; preds = %23, %40
  call void @llvm.lifetime.end.p0(i64 16, ptr nonnull %3) #10
  ret void
}